; Function Attrs: mustprogress uwtable
define hidden void @_ZN15arith_eq_solverC2ER11ast_managerRK10params_ref(ptr noundef nonnull align 8 dereferenceable(128) initializes((0, 8)) %0, ptr noundef nonnull align 8 dereferenceable(976) %1, ptr noundef nonnull align 8 dereferenceable(8) %2) unnamed_addr #3 align 2 personality ptr @__gxx_personality_v0 {
  %4 = alloca %class.params_ref, align 8
  store ptr %1, ptr %0, align 8, !tbaa !3
  %5 = getelementptr inbounds nuw i8, ptr %0, i64 8
  tail call void @_ZN10params_refC1ERKS_(ptr noundef nonnull align 8 dereferenceable(8) %5, ptr noundef nonnull align 8 dereferenceable(8) %2)
  %6 = getelementptr inbounds nuw i8, ptr %0, i64 16
  invoke void @_ZN10arith_utilC1ER11ast_manager(ptr noundef nonnull align 8 dereferenceable(16) %6, ptr noundef nonnull align 8 dereferenceable(976) %1)
          to label %7 unwind label %12

7:                                                ; preds = %3
  %8 = getelementptr inbounds nuw i8, ptr %0, i64 32
  call void @llvm.lifetime.start.p0(i64 8, ptr nonnull %4) #21
  store ptr null, ptr %4, align 8, !tbaa !8
  invoke void @_ZN14arith_rewriterC2ER11ast_managerRK10params_ref(ptr noundef nonnull align 8 dereferenceable(96) %8, ptr noundef nonnull align 8 dereferenceable(976) %1, ptr noundef nonnull align 8 dereferenceable(8) %4)
          to label %9 unwind label %14

9:                                                ; preds = %7
  call void @_ZN10params_refD1Ev(ptr noundef nonnull align 8 dereferenceable(8) %4) #21
  call void @llvm.lifetime.end.p0(i64 8, ptr nonnull %4) #21
  invoke void @_ZN10params_ref8set_boolEPKcb(ptr noundef nonnull align 8 dereferenceable(8) %5, ptr noundef nonnull @.str, i1 noundef zeroext true)
          to label %10 unwind label %16

10:                                               ; preds = %9
  invoke void @_ZN14arith_rewriter11updt_paramsERK10params_ref(ptr noundef nonnull align 8 dereferenceable(96) %8, ptr noundef nonnull align 8 dereferenceable(8) %5)
          to label %11 unwind label %16

11:                                               ; preds = %10
  ret void

12:                                               ; preds = %3
  %13 = landingpad { ptr, i32 }
          cleanup
  br label %18

14:                                               ; preds = %7
  %15 = landingpad { ptr, i32 }
          cleanup
  call void @_ZN10params_refD1Ev(ptr noundef nonnull align 8 dereferenceable(8) %4) #21
  call void @llvm.lifetime.end.p0(i64 8, ptr nonnull %4) #21
  br label %18

16:                                               ; preds = %10, %9
  %17 = landingpad { ptr, i32 }
          cleanup
  call void @_ZN13poly_rewriterI19arith_rewriter_coreED2Ev(ptr noundef nonnull align 8 dereferenceable(96) %8) #21
  br label %18

18:                                               ; preds = %16, %14, %12
  %.pn = phi { ptr, i32 } [ %17, %16 ], [ %15, %14 ], [ %13, %12 ]
  call void @_ZN10params_refD1Ev(ptr noundef nonnull align 8 dereferenceable(8) %5) #21
  resume { ptr, i32 } %.pn
}